target datalayout = "e-m:e-p270:32:32-p271:32:32-p272:64:64-i64:64-i128:128-f80:128-n8:16:32:64-S128"
target triple = "x86_64-pc-linux-gnu"

%struct.lua_TValue = type { %union.Value, [1 x i32], i32 }
%union.Value = type { ptr }
%struct.lua_State = type { i8, i8, i8, i8, i8, i8, i8, ptr, ptr, ptr, ptr, ptr, ptr, ptr, ptr, i32, i32, i16, i16, i32, ptr, ptr, ptr, ptr, ptr }

; Function Attrs: mustprogress nounwind uwtable
define dso_local void @_Z10lua_settopP9lua_Statei(ptr noundef %0, i32 noundef %1) #3 {
  %3 = alloca ptr, align 8
  %4 = alloca i32, align 4
  store ptr %0, ptr %3, align 8, !tbaa !4
  store i32 %1, ptr %4, align 4, !tbaa !9
  %5 = load i32, ptr %4, align 4, !tbaa !9
  %6 = icmp sge i32 %5, 0
  br i1 %6, label %7, label %34

7:                                                ; preds = %2
  br label %8

8:                                                ; preds = %19, %7
  %9 = load ptr, ptr %3, align 8, !tbaa !4
  %10 = getelementptr inbounds nuw %struct.lua_State, ptr %9, i32 0, i32 7
  %11 = load ptr, ptr %10, align 8, !tbaa !23
  %12 = load ptr, ptr %3, align 8, !tbaa !4
  %13 = getelementptr inbounds nuw %struct.lua_State, ptr %12, i32 0, i32 8
  %14 = load ptr, ptr %13, align 8, !tbaa !13
  %15 = load i32, ptr %4, align 4, !tbaa !9
  %16 = sext i32 %15 to i64
  %17 = getelementptr inbounds %struct.lua_TValue, ptr %14, i64 %16
  %18 = icmp ult ptr %11, %17
  br i1 %18, label %19, label %25

19:                                               ; preds = %8
  %20 = load ptr, ptr %3, align 8, !tbaa !4
  %21 = getelementptr inbounds nuw %struct.lua_State, ptr %20, i32 0, i32 7
  %22 = load ptr, ptr %21, align 8, !tbaa !23
  %23 = getelementptr inbounds nuw %struct.lua_TValue, ptr %22, i32 1
  store ptr %23, ptr %21, align 8, !tbaa !23
  %24 = getelementptr inbounds nuw %struct.lua_TValue, ptr %22, i32 0, i32 2
  store i32 0, ptr %24, align 4, !tbaa !49
  br label %8, !llvm.loop !53

25:                                               ; preds = %8
  %26 = load ptr, ptr %3, align 8, !tbaa !4
  %27 = getelementptr inbounds nuw %struct.lua_State, ptr %26, i32 0, i32 8
  %28 = load ptr, ptr %27, align 8, !tbaa !13
  %29 = load i32, ptr %4, align 4, !tbaa !9
  %30 = sext i32 %29 to i64
  %31 = getelementptr inbounds %struct.lua_TValue, ptr %28, i64 %30
  %32 = load ptr, ptr %3, align 8, !tbaa !4
  %33 = getelementptr inbounds nuw %struct.lua_State, ptr %32, i32 0, i32 7
  store ptr %31, ptr %33, align 8, !tbaa !23
  br label %42

34:                                               ; preds = %2
  %35 = load i32, ptr %4, align 4, !tbaa !9
  %36 = add nsw i32 %35, 1
  %37 = load ptr, ptr %3, align 8, !tbaa !4
  %38 = getelementptr inbounds nuw %struct.lua_State, ptr %37, i32 0, i32 7
  %39 = load ptr, ptr %38, align 8, !tbaa !23
  %40 = sext i32 %36 to i64
  %41 = getelementptr inbounds %struct.lua_TValue, ptr %39, i64 %40
  store ptr %41, ptr %38, align 8, !tbaa !23
  br label %42

42:                                               ; preds = %34, %25
  ret void
}