; Function Attrs: mustprogress nofree norecurse nosync nounwind memory(write, argmem: readwrite, inaccessiblemem: none) uwtable
define dso_local void @_Z10lua_settopP9lua_Statei(ptr noundef captures(none) %0, i32 noundef %1) local_unnamed_addr #7 {
  %3 = icmp sgt i32 %1, -1
  %4 = getelementptr inbounds nuw i8, ptr %0, i64 8
  br i1 %3, label %.preheader, label %14

.preheader:                                       ; preds = %2
  %5 = getelementptr inbounds nuw i8, ptr %0, i64 16
  %6 = load ptr, ptr %5, align 8, !tbaa !4
  %7 = zext nneg i32 %1 to i64
  %8 = getelementptr inbounds nuw %struct.lua_TValue, ptr %6, i64 %7
  %.promoted = load ptr, ptr %4, align 8, !tbaa !19
  %9 = icmp ult ptr %.promoted, %8
  br i1 %9, label %.lr.ph, label %._crit_edge

.lr.ph:                                           ; preds = %.preheader, %.lr.ph
  %10 = phi ptr [ %11, %.lr.ph ], [ %.promoted, %.preheader ]
  %11 = getelementptr inbounds nuw i8, ptr %10, i64 16
  %12 = getelementptr inbounds nuw i8, ptr %10, i64 12
  store i32 0, ptr %12, align 4, !tbaa !47
  %13 = icmp ult ptr %11, %8
  br i1 %13, label %.lr.ph, label %._crit_edge, !llvm.loop !50

14:                                               ; preds = %2
  %15 = load ptr, ptr %4, align 8, !tbaa !19
  %16 = sext i32 %1 to i64
  %17 = getelementptr %struct.lua_TValue, ptr %15, i64 %16
  %18 = getelementptr i8, ptr %17, i64 16
  br label %._crit_edge

._crit_edge:                                      ; preds = %.lr.ph, %.preheader, %14
  %.sink = phi ptr [ %18, %14 ], [ %8, %.preheader ], [ %8, %.lr.ph ]
  store ptr %.sink, ptr %4, align 8, !tbaa !19
  ret void
}